target datalayout = "e-m:e-p270:32:32-p271:32:32-p272:64:64-i64:64-i128:128-f80:128-n8:16:32:64-S128"
target triple = "x86_64-pc-linux-gnu"

%struct.Vec_Int_t_ = type { i32, i32, ptr }

@.str.3 = private unnamed_addr constant [5 x i8] c"%s: \00", align 1
@.str.4 = private unnamed_addr constant [4 x i8] c"%d \00", align 1
@.str.5 = private unnamed_addr constant [2 x i8] c"\0A\00", align 1

; Function Attrs: nounwind uwtable
define void @Acb_NtkPrintVec(ptr noundef %0, ptr noundef %1, ptr noundef %2) #0 {
  %4 = alloca ptr, align 8
  %5 = alloca ptr, align 8
  %6 = alloca ptr, align 8
  %7 = alloca i32, align 4
  store ptr %0, ptr %4, align 8, !tbaa !28
  store ptr %1, ptr %5, align 8, !tbaa !9
  store ptr %2, ptr %6, align 8, !tbaa !85
  call void @llvm.lifetime.start.p0(i64 4, ptr %7) #12
  %8 = load ptr, ptr %6, align 8, !tbaa !85
  %9 = call i32 (ptr, ...) @printf(ptr noundef @.str.3, ptr noundef %8)
  store i32 0, ptr %7, align 4, !tbaa !7
  br label %10

10:                                               ; preds = %25, %3
  %11 = load i32, ptr %7, align 4, !tbaa !7
  %12 = load ptr, ptr %5, align 8, !tbaa !9
  %13 = getelementptr inbounds nuw %struct.Vec_Int_t_, ptr %12, i32 0, i32 1
  %14 = load i32, ptr %13, align 4, !tbaa !24
  %15 = icmp slt i32 %11, %14
  br i1 %15, label %16, label %28

16:                                               ; preds = %10
  %17 = load ptr, ptr %5, align 8, !tbaa !9
  %18 = getelementptr inbounds nuw %struct.Vec_Int_t_, ptr %17, i32 0, i32 2
  %19 = load ptr, ptr %18, align 8, !tbaa !27
  %20 = load i32, ptr %7, align 4, !tbaa !7
  %21 = sext i32 %20 to i64
  %22 = getelementptr inbounds i32, ptr %19, i64 %21
  %23 = load i32, ptr %22, align 4, !tbaa !7
  %24 = call i32 (ptr, ...) @printf(ptr noundef @.str.4, i32 noundef %23)
  br label %25

25:                                               ; preds = %16
  %26 = load i32, ptr %7, align 4, !tbaa !7
  %27 = add nsw i32 %26, 1
  store i32 %27, ptr %7, align 4, !tbaa !7
  br label %10, !llvm.loop !86

28:                                               ; preds = %10
  %29 = call i32 (ptr, ...) @printf(ptr noundef @.str.5)
  call void @llvm.lifetime.end.p0(i64 4, ptr %7) #12
  ret void
}