; Function Attrs: nofree nounwind uwtable
define void @Acb_NtkPrintVec(ptr noundef readnone captures(none) %0, ptr noundef readonly captures(none) %1, ptr noundef %2) local_unnamed_addr #10 {
  %4 = tail call i32 (ptr, ...) @printf(ptr noundef nonnull dereferenceable(1) @.str.3, ptr noundef %2)
  %5 = getelementptr inbounds nuw i8, ptr %1, i64 4
  %6 = load i32, ptr %5, align 4, !tbaa !15
  %7 = icmp sgt i32 %6, 0
  br i1 %7, label %.lr.ph, label %._crit_edge

.lr.ph:                                           ; preds = %3
  %8 = getelementptr inbounds nuw i8, ptr %1, i64 8
  br label %9

9:                                                ; preds = %.lr.ph, %9
  %indvars.iv = phi i64 [ 0, %.lr.ph ], [ %indvars.iv.next, %9 ]
  %10 = load ptr, ptr %8, align 8, !tbaa !18
  %11 = getelementptr inbounds nuw i32, ptr %10, i64 %indvars.iv
  %12 = load i32, ptr %11, align 4, !tbaa !19
  %13 = tail call i32 (ptr, ...) @printf(ptr noundef nonnull dereferenceable(1) @.str.4, i32 noundef %12)
  %indvars.iv.next = add nuw nsw i64 %indvars.iv, 1
  %14 = load i32, ptr %5, align 4, !tbaa !15
  %15 = sext i32 %14 to i64
  %16 = icmp slt i64 %indvars.iv.next, %15
  br i1 %16, label %9, label %._crit_edge, !llvm.loop !70

._crit_edge:                                      ; preds = %9, %3
  %putchar = tail call i32 @putchar(i32 10)
  ret void
}